target datalayout = "e-m:e-p270:32:32-p271:32:32-p272:64:64-i64:64-i128:128-f80:128-n8:16:32:64-S128"
target triple = "x86_64-pc-linux-gnu"

%struct.SpGistScanOpaqueData = type { %struct.SpGistState, ptr, ptr, ptr, i8, i8, i32, ptr, i32, i32, ptr, ptr, ptr, i32, %struct.FmgrInfo, %struct.FmgrInfo, ptr, ptr, ptr, i64, i8, ptr, i32, i32, [408 x %struct.ItemPointerData], [408 x i8], [408 x i8], [408 x ptr], [408 x ptr] }
%struct.SpGistState = type { ptr, %struct.spgConfigOut, %struct.SpGistTypeDesc, %struct.SpGistTypeDesc, %struct.SpGistTypeDesc, %struct.SpGistTypeDesc, ptr, ptr, i32, i8 }
%struct.spgConfigOut = type { i32, i32, i32, i8, i8 }
%struct.SpGistTypeDesc = type { i32, i16, i8, i8, i8 }
%struct.FmgrInfo = type { ptr, i32, i16, i8, i8, i8, ptr, ptr, ptr }
%struct.ItemPointerData = type { %struct.BlockIdData, i16 }
%struct.BlockIdData = type { i16, i16 }
%struct.SpGistSearchItem = type { %struct.pairingheap_node, i64, ptr, ptr, i32, %struct.ItemPointerData, i8, i8, i8, i8, [0 x double] }
%struct.pairingheap_node = type { ptr, ptr, ptr }

; Function Attrs: nounwind uwtable
define internal i32 @pairingheap_SpGistSearchItem_cmp(ptr noundef %0, ptr noundef %1, ptr noundef %2) #0 {
  %4 = alloca i32, align 4
  %5 = alloca ptr, align 8
  %6 = alloca ptr, align 8
  %7 = alloca ptr, align 8
  %8 = alloca ptr, align 8
  %9 = alloca ptr, align 8
  %10 = alloca ptr, align 8
  %11 = alloca i32, align 4
  %12 = alloca i32, align 4
  store ptr %0, ptr %5, align 8
  store ptr %1, ptr %6, align 8
  store ptr %2, ptr %7, align 8
  call void @llvm.lifetime.start.p0(i64 8, ptr %8) #9
  %13 = load ptr, ptr %5, align 8
  store ptr %13, ptr %8, align 8
  call void @llvm.lifetime.start.p0(i64 8, ptr %9) #9
  %14 = load ptr, ptr %6, align 8
  store ptr %14, ptr %9, align 8
  call void @llvm.lifetime.start.p0(i64 8, ptr %10) #9
  %15 = load ptr, ptr %7, align 8
  store ptr %15, ptr %10, align 8
  call void @llvm.lifetime.start.p0(i64 4, ptr %11) #9
  %16 = load ptr, ptr %8, align 8
  %17 = getelementptr inbounds nuw %struct.SpGistSearchItem, ptr %16, i32 0, i32 6
  %18 = load i8, ptr %17, align 2, !range !7, !noundef !8
  %19 = trunc i8 %18 to i1
  br i1 %19, label %20, label %27

20:                                               ; preds = %3
  %21 = load ptr, ptr %9, align 8
  %22 = getelementptr inbounds nuw %struct.SpGistSearchItem, ptr %21, i32 0, i32 6
  %23 = load i8, ptr %22, align 2, !range !7, !noundef !8
  %24 = trunc i8 %23 to i1
  br i1 %24, label %26, label %25

25:                                               ; preds = %20
  store i32 -1, ptr %4, align 4
  store i32 1, ptr %12, align 4
  br label %133

26:                                               ; preds = %20
  br label %110

27:                                               ; preds = %3
  %28 = load ptr, ptr %9, align 8
  %29 = getelementptr inbounds nuw %struct.SpGistSearchItem, ptr %28, i32 0, i32 6
  %30 = load i8, ptr %29, align 2, !range !7, !noundef !8
  %31 = trunc i8 %30 to i1
  br i1 %31, label %32, label %33

32:                                               ; preds = %27
  store i32 1, ptr %4, align 4
  store i32 1, ptr %12, align 4
  br label %133

33:                                               ; preds = %27
  store i32 0, ptr %11, align 4
  br label %34

34:                                               ; preds = %105, %33
  %35 = load i32, ptr %11, align 4
  %36 = load ptr, ptr %10, align 8
  %37 = getelementptr inbounds nuw %struct.SpGistScanOpaqueData, ptr %36, i32 0, i32 9
  %38 = load i32, ptr %37, align 4
  %39 = icmp slt i32 %35, %38
  br i1 %39, label %40, label %108

40:                                               ; preds = %34
  %41 = load ptr, ptr %8, align 8
  %42 = getelementptr inbounds nuw %struct.SpGistSearchItem, ptr %41, i32 0, i32 10
  %43 = load i32, ptr %11, align 4
  %44 = sext i32 %43 to i64
  %45 = getelementptr inbounds [0 x double], ptr %42, i64 0, i64 %44
  %46 = load double, ptr %45, align 8
  %47 = call i1 @llvm.is.fpclass.f64(double %46, i32 3)
  br i1 %47, label %48, label %57

48:                                               ; preds = %40
  %49 = load ptr, ptr %9, align 8
  %50 = getelementptr inbounds nuw %struct.SpGistSearchItem, ptr %49, i32 0, i32 10
  %51 = load i32, ptr %11, align 4
  %52 = sext i32 %51 to i64
  %53 = getelementptr inbounds [0 x double], ptr %50, i64 0, i64 %52
  %54 = load double, ptr %53, align 8
  %55 = call i1 @llvm.is.fpclass.f64(double %54, i32 3)
  br i1 %55, label %56, label %57

56:                                               ; preds = %48
  br label %105

57:                                               ; preds = %48, %40
  %58 = load ptr, ptr %8, align 8
  %59 = getelementptr inbounds nuw %struct.SpGistSearchItem, ptr %58, i32 0, i32 10
  %60 = load i32, ptr %11, align 4
  %61 = sext i32 %60 to i64
  %62 = getelementptr inbounds [0 x double], ptr %59, i64 0, i64 %61
  %63 = load double, ptr %62, align 8
  %64 = call i1 @llvm.is.fpclass.f64(double %63, i32 3)
  br i1 %64, label %65, label %66

65:                                               ; preds = %57
  store i32 -1, ptr %4, align 4
  store i32 1, ptr %12, align 4
  br label %133

66:                                               ; preds = %57
  %67 = load ptr, ptr %9, align 8
  %68 = getelementptr inbounds nuw %struct.SpGistSearchItem, ptr %67, i32 0, i32 10
  %69 = load i32, ptr %11, align 4
  %70 = sext i32 %69 to i64
  %71 = getelementptr inbounds [0 x double], ptr %68, i64 0, i64 %70
  %72 = load double, ptr %71, align 8
  %73 = call i1 @llvm.is.fpclass.f64(double %72, i32 3)
  br i1 %73, label %74, label %75

74:                                               ; preds = %66
  store i32 1, ptr %4, align 4
  store i32 1, ptr %12, align 4
  br label %133

75:                                               ; preds = %66
  %76 = load ptr, ptr %8, align 8
  %77 = getelementptr inbounds nuw %struct.SpGistSearchItem, ptr %76, i32 0, i32 10
  %78 = load i32, ptr %11, align 4
  %79 = sext i32 %78 to i64
  %80 = getelementptr inbounds [0 x double], ptr %77, i64 0, i64 %79
  %81 = load double, ptr %80, align 8
  %82 = load ptr, ptr %9, align 8
  %83 = getelementptr inbounds nuw %struct.SpGistSearchItem, ptr %82, i32 0, i32 10
  %84 = load i32, ptr %11, align 4
  %85 = sext i32 %84 to i64
  %86 = getelementptr inbounds [0 x double], ptr %83, i64 0, i64 %85
  %87 = load double, ptr %86, align 8
  %88 = fcmp une double %81, %87
  br i1 %88, label %89, label %104

89:                                               ; preds = %75
  %90 = load ptr, ptr %8, align 8
  %91 = getelementptr inbounds nuw %struct.SpGistSearchItem, ptr %90, i32 0, i32 10
  %92 = load i32, ptr %11, align 4
  %93 = sext i32 %92 to i64
  %94 = getelementptr inbounds [0 x double], ptr %91, i64 0, i64 %93
  %95 = load double, ptr %94, align 8
  %96 = load ptr, ptr %9, align 8
  %97 = getelementptr inbounds nuw %struct.SpGistSearchItem, ptr %96, i32 0, i32 10
  %98 = load i32, ptr %11, align 4
  %99 = sext i32 %98 to i64
  %100 = getelementptr inbounds [0 x double], ptr %97, i64 0, i64 %99
  %101 = load double, ptr %100, align 8
  %102 = fcmp olt double %95, %101
  %103 = select i1 %102, i32 1, i32 -1
  store i32 %103, ptr %4, align 4
  store i32 1, ptr %12, align 4
  br label %133

104:                                              ; preds = %75
  br label %105

105:                                              ; preds = %104, %56
  %106 = load i32, ptr %11, align 4
  %107 = add i32 %106, 1
  store i32 %107, ptr %11, align 4
  br label %34, !llvm.loop !19

108:                                              ; preds = %34
  br label %109

109:                                              ; preds = %108
  br label %110

110:                                              ; preds = %109, %26
  %111 = load ptr, ptr %8, align 8
  %112 = getelementptr inbounds nuw %struct.SpGistSearchItem, ptr %111, i32 0, i32 7
  %113 = load i8, ptr %112, align 1, !range !7, !noundef !8
  %114 = trunc i8 %113 to i1
  br i1 %114, label %115, label %121

115:                                              ; preds = %110
  %116 = load ptr, ptr %9, align 8
  %117 = getelementptr inbounds nuw %struct.SpGistSearchItem, ptr %116, i32 0, i32 7
  %118 = load i8, ptr %117, align 1, !range !7, !noundef !8
  %119 = trunc i8 %118 to i1
  br i1 %119, label %121, label %120

120:                                              ; preds = %115
  store i32 1, ptr %4, align 4
  store i32 1, ptr %12, align 4
  br label %133

121:                                              ; preds = %115, %110
  %122 = load ptr, ptr %8, align 8
  %123 = getelementptr inbounds nuw %struct.SpGistSearchItem, ptr %122, i32 0, i32 7
  %124 = load i8, ptr %123, align 1, !range !7, !noundef !8
  %125 = trunc i8 %124 to i1
  br i1 %125, label %132, label %126

126:                                              ; preds = %121
  %127 = load ptr, ptr %9, align 8
  %128 = getelementptr inbounds nuw %struct.SpGistSearchItem, ptr %127, i32 0, i32 7
  %129 = load i8, ptr %128, align 1, !range !7, !noundef !8
  %130 = trunc i8 %129 to i1
  br i1 %130, label %131, label %132

131:                                              ; preds = %126
  store i32 -1, ptr %4, align 4
  store i32 1, ptr %12, align 4
  br label %133

132:                                              ; preds = %126, %121
  store i32 0, ptr %4, align 4
  store i32 1, ptr %12, align 4
  br label %133

133:                                              ; preds = %132, %131, %120, %89, %74, %65, %32, %25
  call void @llvm.lifetime.end.p0(i64 4, ptr %11) #9
  call void @llvm.lifetime.end.p0(i64 8, ptr %10) #9
  call void @llvm.lifetime.end.p0(i64 8, ptr %9) #9
  call void @llvm.lifetime.end.p0(i64 8, ptr %8) #9
  %134 = load i32, ptr %4, align 4
  ret i32 %134
}