; Function Attrs: nofree norecurse nosync nounwind memory(argmem: read) uwtable
define internal range(i32 -1, 2) i32 @pairingheap_SpGistSearchItem_cmp(ptr noundef readonly captures(none) %0, ptr noundef readonly captures(none) %1, ptr noundef readonly captures(none) %2) #6 {
  %4 = getelementptr inbounds nuw i8, ptr %0, i64 58
  %5 = load i8, ptr %4, align 2, !range !9, !noundef !10
  %6 = trunc nuw i8 %5 to i1
  %7 = getelementptr inbounds nuw i8, ptr %1, i64 58
  %8 = load i8, ptr %7, align 2, !range !9, !noundef !10
  %9 = trunc nuw i8 %8 to i1
  br i1 %6, label %10, label %11

10:                                               ; preds = %3
  br i1 %9, label %.loopexit, label %.thread

11:                                               ; preds = %3
  br i1 %9, label %.thread, label %.preheader

.preheader:                                       ; preds = %11
  %12 = getelementptr inbounds nuw i8, ptr %2, i64 140
  %13 = load i32, ptr %12, align 4
  %14 = icmp sgt i32 %13, 0
  br i1 %14, label %.lr.ph, label %.loopexit

.lr.ph:                                           ; preds = %.preheader
  %15 = getelementptr inbounds nuw i8, ptr %0, i64 64
  %16 = getelementptr inbounds nuw i8, ptr %1, i64 64
  %wide.trip.count = zext nneg i32 %13 to i64
  br label %17

17:                                               ; preds = %.lr.ph, %31
  %indvars.iv = phi i64 [ 0, %.lr.ph ], [ %indvars.iv.next, %31 ]
  %18 = getelementptr inbounds nuw [0 x double], ptr %15, i64 0, i64 %indvars.iv
  %19 = load double, ptr %18, align 8
  %20 = fcmp uno double %19, 0.000000e+00
  %21 = getelementptr inbounds nuw [0 x double], ptr %16, i64 0, i64 %indvars.iv
  %22 = load double, ptr %21, align 8
  %23 = fcmp uno double %22, 0.000000e+00
  br i1 %20, label %24, label %25

24:                                               ; preds = %17
  br i1 %23, label %31, label %.thread

25:                                               ; preds = %17
  br i1 %23, label %.thread, label %26

26:                                               ; preds = %25
  %27 = fcmp une double %19, %22
  br i1 %27, label %28, label %31

28:                                               ; preds = %26
  %29 = fcmp olt double %19, %22
  %30 = select i1 %29, i32 1, i32 -1
  br label %.thread

31:                                               ; preds = %26, %24
  %indvars.iv.next = add nuw nsw i64 %indvars.iv, 1
  %exitcond.not = icmp eq i64 %indvars.iv.next, %wide.trip.count
  br i1 %exitcond.not, label %.loopexit, label %17, !llvm.loop !24

.loopexit:                                        ; preds = %31, %.preheader, %10
  %32 = getelementptr inbounds nuw i8, ptr %0, i64 59
  %33 = load i8, ptr %32, align 1, !range !9, !noundef !10
  %34 = trunc nuw i8 %33 to i1
  %35 = getelementptr inbounds nuw i8, ptr %1, i64 59
  %36 = load i8, ptr %35, align 1, !range !9, !noundef !10
  %37 = trunc nuw i8 %36 to i1
  br i1 %34, label %38, label %39

38:                                               ; preds = %.loopexit
  br i1 %37, label %.thread32, label %.thread

39:                                               ; preds = %.loopexit
  br i1 %37, label %.thread, label %.thread32

.thread32:                                        ; preds = %38, %39
  br label %.thread

.thread:                                          ; preds = %24, %25, %39, %38, %11, %10, %.thread32, %28
  %.029 = phi i32 [ 0, %.thread32 ], [ %30, %28 ], [ -1, %10 ], [ 1, %11 ], [ 1, %38 ], [ -1, %39 ], [ -1, %24 ], [ 1, %25 ]
  ret i32 %.029
}